(dp0
S'IDLE_EGG'
p1
((lp2
I0
aI0
aI0
aI0
aI0
aI0
aI0
aI0
aI0
aI0
aI0
aI0
aI0
aI0
aI0
aI0
aI0
aI0
aI0
aI516096
aI552960
aI1062912
aI3148800
aI7341056
aI4293120
aI4293120
aI4194816
aI7341568
aI3935232
aI1968128
aI4193280
aI0
a(lp3
I0
aI0
aI0
aI0
aI0
aI0
aI0
aI0
aI0
aI0
aI0
aI0
aI0
aI0
aI0
aI0
aI0
aI0
aI0
aI0
aI516096
aI552960
aI1062912
aI3148800
aI7341056
aI4194816
aI4293120
aI4293120
aI7341568
aI3935232
aI16776960
aI0
atp4
s.